target datalayout = "e-m:e-p270:32:32-p271:32:32-p272:64:64-i64:64-i128:128-f80:128-n8:16:32:64-S128"
target triple = "x86_64-unknown-linux-gnu"

%"class.llvh::FoldingSetBase::Node" = type { ptr }
%"class.llvh::FoldingSetIteratorImpl" = type { ptr }

; Function Attrs: mustprogress nounwind uwtable
define internal noundef ptr @_ZL12GetBucketPtrPv(ptr noundef %NextInBucketPtr) #0 {
entry:
  %NextInBucketPtr.addr = alloca ptr, align 8
  %Ptr = alloca i64, align 8
  store ptr %NextInBucketPtr, ptr %NextInBucketPtr.addr, align 8
  %0 = load ptr, ptr %NextInBucketPtr.addr, align 8
  %1 = ptrtoint ptr %0 to i64
  store i64 %1, ptr %Ptr, align 8
  %2 = load i64, ptr %Ptr, align 8
  %and = and i64 %2, -2
  %3 = inttoptr i64 %and to ptr
  ret ptr %3
}

; Function Attrs: mustprogress nounwind uwtable
define internal noundef ptr @_ZL10GetNextPtrPv(ptr noundef %NextInBucketPtr) #0 {
entry:
  %retval = alloca ptr, align 8
  %NextInBucketPtr.addr = alloca ptr, align 8
  store ptr %NextInBucketPtr, ptr %NextInBucketPtr.addr, align 8
  %0 = load ptr, ptr %NextInBucketPtr.addr, align 8
  %1 = ptrtoint ptr %0 to i64
  %and = and i64 %1, 1
  %tobool = icmp ne i64 %and, 0
  br i1 %tobool, label %if.then, label %if.end

if.then:                                          ; preds = %entry
  store ptr null, ptr %retval, align 8
  br label %return

if.end:                                           ; preds = %entry
  %2 = load ptr, ptr %NextInBucketPtr.addr, align 8
  store ptr %2, ptr %retval, align 8
  br label %return

return:                                           ; preds = %if.end, %if.then
  %3 = load ptr, ptr %retval, align 8
  ret ptr %3
}

; Function Attrs: mustprogress nounwind uwtable
define linkonce_odr hidden noundef ptr @_ZNK4llvh14FoldingSetBase4Node15getNextInBucketEv(ptr noundef nonnull align 8 dereferenceable(8) %this) #0 comdat align 2 {
entry:
  %this.addr = alloca ptr, align 8
  store ptr %this, ptr %this.addr, align 8
  %this1 = load ptr, ptr %this.addr, align 8
  %NextInFoldingSetBucket = getelementptr inbounds %"class.llvh::FoldingSetBase::Node", ptr %this1, i32 0, i32 0
  %0 = load ptr, ptr %NextInFoldingSetBucket, align 8
  ret ptr %0
}

; Function Attrs: mustprogress nounwind uwtable
define hidden void @_ZN4llvh22FoldingSetIteratorImpl7advanceEv(ptr noundef nonnull align 8 dereferenceable(8) %this) #0 align 2 {
entry:
  %this.addr = alloca ptr, align 8
  %Probe = alloca ptr, align 8
  %NextNodeInBucket = alloca ptr, align 8
  %Bucket = alloca ptr, align 8
  store ptr %this, ptr %this.addr, align 8
  %this1 = load ptr, ptr %this.addr, align 8
  %NodePtr = getelementptr inbounds %"class.llvh::FoldingSetIteratorImpl", ptr %this1, i32 0, i32 0
  %0 = load ptr, ptr %NodePtr, align 8
  %call = call noundef ptr @_ZNK4llvh14FoldingSetBase4Node15getNextInBucketEv(ptr noundef nonnull align 8 dereferenceable(8) %0)
  store ptr %call, ptr %Probe, align 8
  %1 = load ptr, ptr %Probe, align 8
  %call2 = call noundef ptr @_ZL10GetNextPtrPv(ptr noundef %1)
  store ptr %call2, ptr %NextNodeInBucket, align 8
  %2 = load ptr, ptr %NextNodeInBucket, align 8
  %tobool = icmp ne ptr %2, null
  br i1 %tobool, label %if.then, label %if.else

if.then:                                          ; preds = %entry
  %3 = load ptr, ptr %NextNodeInBucket, align 8
  %NodePtr3 = getelementptr inbounds %"class.llvh::FoldingSetIteratorImpl", ptr %this1, i32 0, i32 0
  store ptr %3, ptr %NodePtr3, align 8
  br label %if.end

if.else:                                          ; preds = %entry
  %4 = load ptr, ptr %Probe, align 8
  %call4 = call noundef ptr @_ZL12GetBucketPtrPv(ptr noundef %4)
  store ptr %call4, ptr %Bucket, align 8
  br label %do.body

do.body:                                          ; preds = %land.end, %if.else
  %5 = load ptr, ptr %Bucket, align 8
  %incdec.ptr = getelementptr inbounds ptr, ptr %5, i32 1
  store ptr %incdec.ptr, ptr %Bucket, align 8
  br label %do.cond

do.cond:                                          ; preds = %do.body
  %6 = load ptr, ptr %Bucket, align 8
  %7 = load ptr, ptr %6, align 8
  %cmp = icmp ne ptr %7, inttoptr (i64 -1 to ptr)
  br i1 %cmp, label %land.rhs, label %land.end

land.rhs:                                         ; preds = %do.cond
  %8 = load ptr, ptr %Bucket, align 8
  %9 = load ptr, ptr %8, align 8
  %tobool5 = icmp ne ptr %9, null
  br i1 %tobool5, label %lor.rhs, label %lor.end

lor.rhs:                                          ; preds = %land.rhs
  %10 = load ptr, ptr %Bucket, align 8
  %11 = load ptr, ptr %10, align 8
  %call6 = call noundef ptr @_ZL10GetNextPtrPv(ptr noundef %11)
  %tobool7 = icmp ne ptr %call6, null
  %lnot = xor i1 %tobool7, true
  br label %lor.end

lor.end:                                          ; preds = %lor.rhs, %land.rhs
  %12 = phi i1 [ true, %land.rhs ], [ %lnot, %lor.rhs ]
  br label %land.end

land.end:                                         ; preds = %lor.end, %do.cond
  %13 = phi i1 [ false, %do.cond ], [ %12, %lor.end ]
  br i1 %13, label %do.body, label %do.end, !llvm.loop !11

do.end:                                           ; preds = %land.end
  %14 = load ptr, ptr %Bucket, align 8
  %15 = load ptr, ptr %14, align 8
  %NodePtr8 = getelementptr inbounds %"class.llvh::FoldingSetIteratorImpl", ptr %this1, i32 0, i32 0
  store ptr %15, ptr %NodePtr8, align 8
  br label %if.end

if.end:                                           ; preds = %do.end, %if.then
  ret void
}