; Function Attrs: mustprogress nofree norecurse nosync nounwind memory(read, argmem: readwrite, inaccessiblemem: none) uwtable
define hidden void @_ZN4llvh22FoldingSetIteratorImpl7advanceEv(ptr nocapture noundef nonnull align 8 dereferenceable(8) %this) local_unnamed_addr #11 align 2 {
entry:
  %0 = load ptr, ptr %this, align 8
  %1 = load ptr, ptr %0, align 8
  %2 = ptrtoint ptr %1 to i64
  %and.i = and i64 %2, 1
  %tobool.not.i = icmp ne i64 %and.i, 0
  %tobool.not11 = icmp eq ptr %1, null
  %tobool.not = or i1 %tobool.not11, %tobool.not.i
  br i1 %tobool.not, label %if.else, label %if.end

if.else:                                          ; preds = %entry
  %and.i7 = and i64 %2, -2
  %3 = inttoptr i64 %and.i7 to ptr
  br label %do.body

do.body:                                          ; preds = %do.body.backedge, %if.else
  %Bucket.0 = phi ptr [ %3, %if.else ], [ %incdec.ptr, %do.body.backedge ]
  %incdec.ptr = getelementptr inbounds i8, ptr %Bucket.0, i64 8
  %4 = load ptr, ptr %incdec.ptr, align 8
  %magicptr = ptrtoint ptr %4 to i64
  switch i64 %magicptr, label %lor.rhs [
    i64 -1, label %if.end
    i64 0, label %do.body.backedge
  ]

lor.rhs:                                          ; preds = %do.body
  %and.i8 = and i64 %magicptr, 1
  %tobool.not.i9 = icmp ne i64 %and.i8, 0
  %tobool7.not12 = icmp eq ptr %4, null
  %tobool7.not = or i1 %tobool7.not12, %tobool.not.i9
  br i1 %tobool7.not, label %do.body.backedge, label %if.end

do.body.backedge:                                 ; preds = %lor.rhs, %do.body
  br label %do.body, !llvm.loop !12

if.end:                                           ; preds = %lor.rhs, %do.body, %entry
  %storemerge = phi ptr [ %1, %entry ], [ %4, %do.body ], [ %4, %lor.rhs ]
  store ptr %storemerge, ptr %this, align 8
  ret void
}